target datalayout = "e-m:e-p270:32:32-p271:32:32-p272:64:64-i64:64-i128:128-f80:128-n8:16:32:64-S128"
target triple = "x86_64-pc-linux-gnu"

%struct.b2Vec2 = type { float, float }
%struct.b2Transform = type { %struct.b2Vec2, %struct.b2Rot }
%struct.b2Rot = type { float, float }
%struct.b2Manifold = type { %struct.b2Vec2, float, [2 x %struct.b2ManifoldPoint], i32 }
%struct.b2ManifoldPoint = type { %struct.b2Vec2, %struct.b2Vec2, %struct.b2Vec2, float, float, float, float, float, i16, i8 }
%struct.b2Capsule = type { %struct.b2Vec2, %struct.b2Vec2, float }
%struct.b2Segment = type { %struct.b2Vec2, %struct.b2Vec2 }

; Function Attrs: nounwind uwtable
define void @b2CollideSegmentAndCapsule(ptr dead_on_unwind noalias writable sret(%struct.b2Manifold) align 4 %0, ptr noundef %1, <2 x float> %2, <2 x float> %3, ptr noundef %4, <2 x float> %5, <2 x float> %6) #0 {
  %8 = alloca %struct.b2Transform, align 4
  %9 = alloca %struct.b2Transform, align 4
  %10 = alloca ptr, align 8
  %11 = alloca ptr, align 8
  %12 = alloca %struct.b2Capsule, align 4
  %13 = getelementptr inbounds nuw { <2 x float>, <2 x float> }, ptr %8, i32 0, i32 0
  store <2 x float> %2, ptr %13, align 4
  %14 = getelementptr inbounds nuw { <2 x float>, <2 x float> }, ptr %8, i32 0, i32 1
  store <2 x float> %3, ptr %14, align 4
  %15 = getelementptr inbounds nuw { <2 x float>, <2 x float> }, ptr %9, i32 0, i32 0
  store <2 x float> %5, ptr %15, align 4
  %16 = getelementptr inbounds nuw { <2 x float>, <2 x float> }, ptr %9, i32 0, i32 1
  store <2 x float> %6, ptr %16, align 4
  store ptr %1, ptr %10, align 8, !tbaa !54
  store ptr %4, ptr %11, align 8, !tbaa !36
  call void @llvm.lifetime.start.p0(i64 20, ptr %12) #8
  %17 = getelementptr inbounds nuw %struct.b2Capsule, ptr %12, i32 0, i32 0
  %18 = load ptr, ptr %10, align 8, !tbaa !54
  %19 = getelementptr inbounds nuw %struct.b2Segment, ptr %18, i32 0, i32 0
  call void @llvm.memcpy.p0.p0.i64(ptr align 4 %17, ptr align 4 %19, i64 8, i1 false), !tbaa.struct !8
  %20 = getelementptr inbounds nuw %struct.b2Capsule, ptr %12, i32 0, i32 1
  %21 = load ptr, ptr %10, align 8, !tbaa !54
  %22 = getelementptr inbounds nuw %struct.b2Segment, ptr %21, i32 0, i32 1
  call void @llvm.memcpy.p0.p0.i64(ptr align 4 %20, ptr align 4 %22, i64 8, i1 false), !tbaa.struct !8
  %23 = getelementptr inbounds nuw %struct.b2Capsule, ptr %12, i32 0, i32 2
  store float 0.000000e+00, ptr %23, align 4, !tbaa !38
  %24 = load ptr, ptr %11, align 8, !tbaa !36
  %25 = getelementptr inbounds nuw { <2 x float>, <2 x float> }, ptr %8, i32 0, i32 0
  %26 = load <2 x float>, ptr %25, align 4
  %27 = getelementptr inbounds nuw { <2 x float>, <2 x float> }, ptr %8, i32 0, i32 1
  %28 = load <2 x float>, ptr %27, align 4
  %29 = getelementptr inbounds nuw { <2 x float>, <2 x float> }, ptr %9, i32 0, i32 0
  %30 = load <2 x float>, ptr %29, align 4
  %31 = getelementptr inbounds nuw { <2 x float>, <2 x float> }, ptr %9, i32 0, i32 1
  %32 = load <2 x float>, ptr %31, align 4
  call void @b2CollideCapsules(ptr dead_on_unwind writable sret(%struct.b2Manifold) align 4 %0, ptr noundef %12, <2 x float> %26, <2 x float> %28, ptr noundef %24, <2 x float> %30, <2 x float> %32)
  call void @llvm.lifetime.end.p0(i64 20, ptr %12) #8
  ret void
}