; Function Attrs: nofree norecurse nosync nounwind memory(read, argmem: readwrite, inaccessiblemem: none) uwtable
define void @b2CollideSegmentAndCapsule(ptr dead_on_unwind noalias writable sret(%struct.b2Manifold) align 4 captures(none) initializes((0, 112)) %0, ptr noundef readonly captures(none) %1, <2 x float> %2, <2 x float> %3, ptr noundef readonly captures(none) %4, <2 x float> %5, <2 x float> %6) local_unnamed_addr #4 {
  %8 = alloca %struct.b2Capsule, align 8
  call void @llvm.lifetime.start.p0(i64 20, ptr nonnull %8) #10
  %9 = load i64, ptr %1, align 4
  store i64 %9, ptr %8, align 8
  %10 = getelementptr inbounds nuw i8, ptr %8, i64 8
  %11 = getelementptr inbounds nuw i8, ptr %1, i64 8
  %12 = load i64, ptr %11, align 4
  store i64 %12, ptr %10, align 8
  %13 = getelementptr inbounds nuw i8, ptr %8, i64 16
  store float 0.000000e+00, ptr %13, align 8, !tbaa !17
  call void @b2CollideCapsules(ptr dead_on_unwind writable sret(%struct.b2Manifold) align 4 %0, ptr noundef nonnull %8, <2 x float> %2, <2 x float> %3, ptr noundef %4, <2 x float> %5, <2 x float> %6)
  call void @llvm.lifetime.end.p0(i64 20, ptr nonnull %8) #10
  ret void
}